target datalayout = "e-m:e-p270:32:32-p271:32:32-p272:64:64-i64:64-i128:128-f80:128-n8:16:32:64-S128"
target triple = "x86_64-pc-linux-gnu"

%struct.dt_pthread_mutex_t = type { %union.pthread_mutex_t }
%union.pthread_mutex_t = type { %struct.__pthread_mutex_s }
%struct.__pthread_mutex_s = type { i32, i32, i32, i32, i32, i16, i16, %struct.__pthread_internal_list }
%struct.__pthread_internal_list = type { ptr, ptr }
%struct.dt_dev_pixelpipe_t = type { %struct.dt_dev_pixelpipe_cache_t, i32, i64, ptr, i32, i32, float, i32, i32, [12 x i8], %struct.dt_iop_buffer_dsc_t, ptr, ptr, ptr, ptr, i32, i32, i32, i32, ptr, i64, i32, i32, float, float, float, i64, %struct.dt_pthread_mutex_t, %struct.dt_pthread_mutex_t, %struct.dt_pthread_mutex_t, i32, i32, i32, %struct.dt_dev_detail_mask_t, i32, i32, i32, i32, i32, i32, i32, i32, i32, i32, i32, i32, i32, i32, [8 x i8], %struct.dt_image_t, i32, ptr, i32, ptr, ptr, ptr, i32, ptr, i64, [8 x i8] }
%struct.dt_dev_pixelpipe_cache_t = type { i32, i64, i64, ptr, ptr, ptr, ptr, ptr, ptr, i64, i32, i64, i64, i32, i32, i32 }
%struct.dt_iop_buffer_dsc_t = type { i32, i32, i32, [6 x [6 x i8]], %struct.anon, [12 x i8], %struct.anon.0, [4 x float], i32, [12 x i8] }
%struct.anon = type { i16, i16 }
%struct.anon.0 = type { i32, [12 x i8], [4 x float] }
%struct.dt_dev_detail_mask_t = type { %struct.dt_iop_roi_t, i64, ptr }
%struct.dt_iop_roi_t = type { i32, i32, i32, i32, float }
%struct.dt_image_t = type { i32, i32, float, float, float, float, float, float, float, [64 x i8], [64 x i8], [128 x i8], [64 x i8], [64 x i8], [64 x i8], [64 x i8], i64, i32, %union.dt_image_correction_data_t, [64 x i8], [64 x i8], [64 x i8], [128 x i8], i32, [256 x i8], i32, i32, i32, i32, i32, i32, i32, i32, i32, i32, float, i32, i32, i32, i32, i32, i32, i64, i64, i64, i64, i32, [12 x i8], %struct.dt_iop_buffer_dsc_t, [9 x float], ptr, i32, i32, %struct.dt_image_raw_parameters_t, %struct.dt_image_geoloc_t, %struct._color_harmony_t, i16, [4 x i16], i32, i32, float, float, [4 x float], [4 x [3 x float]], [4 x float], ptr, ptr, i32, i32, [8 x i8] }
%union.dt_image_correction_data_t = type { %struct.anon.2 }
%struct.anon.2 = type { i32, float, [11 x float], [11 x float], [11 x float], [11 x float], [11 x float] }
%struct.dt_image_raw_parameters_t = type { i32 }
%struct.dt_image_geoloc_t = type { double, double, double }
%struct._color_harmony_t = type { i32, i32, i32 }

; Function Attrs: nounwind uwtable
define i32 @dt_dev_pixelpipe_cache_init(ptr noundef %0, i32 noundef %1, i64 noundef %2, i64 noundef %3) #0 {
  %5 = alloca i32, align 4
  %6 = alloca ptr, align 8
  %7 = alloca i32, align 4
  %8 = alloca i64, align 8
  %9 = alloca i64, align 8
  %10 = alloca ptr, align 8
  %11 = alloca i64, align 8
  %12 = alloca i32, align 4
  %13 = alloca i32, align 4
  %14 = alloca i32, align 4
  %15 = alloca i32, align 4
  store ptr %0, ptr %6, align 8, !tbaa !6
  store i32 %1, ptr %7, align 4, !tbaa !11
  store i64 %2, ptr %8, align 8, !tbaa !13
  store i64 %3, ptr %9, align 8, !tbaa !13
  call void @llvm.lifetime.start.p0(i64 8, ptr %10) #17
  %16 = load ptr, ptr %6, align 8, !tbaa !6
  %17 = getelementptr inbounds nuw %struct.dt_dev_pixelpipe_t, ptr %16, i32 0, i32 0
  store ptr %17, ptr %10, align 8, !tbaa !15
  %18 = load i32, ptr %7, align 4, !tbaa !11
  %19 = load ptr, ptr %10, align 8, !tbaa !15
  %20 = getelementptr inbounds nuw %struct.dt_dev_pixelpipe_cache_t, ptr %19, i32 0, i32 0
  store i32 %18, ptr %20, align 8, !tbaa !17
  %21 = load ptr, ptr %10, align 8, !tbaa !15
  %22 = getelementptr inbounds nuw %struct.dt_dev_pixelpipe_cache_t, ptr %21, i32 0, i32 11
  store i64 0, ptr %22, align 8, !tbaa !22
  %23 = load ptr, ptr %10, align 8, !tbaa !15
  %24 = getelementptr inbounds nuw %struct.dt_dev_pixelpipe_cache_t, ptr %23, i32 0, i32 9
  store i64 0, ptr %24, align 8, !tbaa !23
  %25 = load ptr, ptr %10, align 8, !tbaa !15
  %26 = getelementptr inbounds nuw %struct.dt_dev_pixelpipe_cache_t, ptr %25, i32 0, i32 12
  store i64 0, ptr %26, align 8, !tbaa !24
  %27 = load ptr, ptr %10, align 8, !tbaa !15
  %28 = getelementptr inbounds nuw %struct.dt_dev_pixelpipe_cache_t, ptr %27, i32 0, i32 1
  store i64 0, ptr %28, align 8, !tbaa !25
  %29 = load i64, ptr %9, align 8, !tbaa !13
  %30 = load ptr, ptr %10, align 8, !tbaa !15
  %31 = getelementptr inbounds nuw %struct.dt_dev_pixelpipe_cache_t, ptr %30, i32 0, i32 2
  store i64 %29, ptr %31, align 8, !tbaa !26
  call void @llvm.lifetime.start.p0(i64 8, ptr %11) #17
  store i64 160, ptr %11, align 8, !tbaa !13
  %32 = load i32, ptr %7, align 4, !tbaa !11
  %33 = sext i32 %32 to i64
  %34 = call noalias ptr @calloc(i64 noundef %33, i64 noundef 160) #18
  %35 = load ptr, ptr %10, align 8, !tbaa !15
  %36 = getelementptr inbounds nuw %struct.dt_dev_pixelpipe_cache_t, ptr %35, i32 0, i32 3
  store ptr %34, ptr %36, align 8, !tbaa !27
  %37 = load ptr, ptr %10, align 8, !tbaa !15
  %38 = getelementptr inbounds nuw %struct.dt_dev_pixelpipe_cache_t, ptr %37, i32 0, i32 3
  %39 = load ptr, ptr %38, align 8, !tbaa !27
  %40 = load i32, ptr %7, align 4, !tbaa !11
  %41 = sext i32 %40 to i64
  %42 = mul i64 %41, 8
  %43 = getelementptr inbounds nuw i8, ptr %39, i64 %42
  %44 = load ptr, ptr %10, align 8, !tbaa !15
  %45 = getelementptr inbounds nuw %struct.dt_dev_pixelpipe_cache_t, ptr %44, i32 0, i32 4
  store ptr %43, ptr %45, align 8, !tbaa !28
  %46 = load ptr, ptr %10, align 8, !tbaa !15
  %47 = getelementptr inbounds nuw %struct.dt_dev_pixelpipe_cache_t, ptr %46, i32 0, i32 4
  %48 = load ptr, ptr %47, align 8, !tbaa !28
  %49 = load i32, ptr %7, align 4, !tbaa !11
  %50 = sext i32 %49 to i64
  %51 = mul i64 %50, 8
  %52 = getelementptr inbounds nuw i8, ptr %48, i64 %51
  %53 = load ptr, ptr %10, align 8, !tbaa !15
  %54 = getelementptr inbounds nuw %struct.dt_dev_pixelpipe_cache_t, ptr %53, i32 0, i32 5
  store ptr %52, ptr %54, align 8, !tbaa !29
  %55 = load ptr, ptr %10, align 8, !tbaa !15
  %56 = getelementptr inbounds nuw %struct.dt_dev_pixelpipe_cache_t, ptr %55, i32 0, i32 5
  %57 = load ptr, ptr %56, align 8, !tbaa !29
  %58 = load i32, ptr %7, align 4, !tbaa !11
  %59 = sext i32 %58 to i64
  %60 = mul i64 %59, 128
  %61 = getelementptr inbounds nuw i8, ptr %57, i64 %60
  %62 = load ptr, ptr %10, align 8, !tbaa !15
  %63 = getelementptr inbounds nuw %struct.dt_dev_pixelpipe_cache_t, ptr %62, i32 0, i32 6
  store ptr %61, ptr %63, align 8, !tbaa !30
  %64 = load ptr, ptr %10, align 8, !tbaa !15
  %65 = getelementptr inbounds nuw %struct.dt_dev_pixelpipe_cache_t, ptr %64, i32 0, i32 6
  %66 = load ptr, ptr %65, align 8, !tbaa !30
  %67 = load i32, ptr %7, align 4, !tbaa !11
  %68 = sext i32 %67 to i64
  %69 = mul i64 %68, 8
  %70 = getelementptr inbounds nuw i8, ptr %66, i64 %69
  %71 = load ptr, ptr %10, align 8, !tbaa !15
  %72 = getelementptr inbounds nuw %struct.dt_dev_pixelpipe_cache_t, ptr %71, i32 0, i32 7
  store ptr %70, ptr %72, align 8, !tbaa !31
  %73 = load ptr, ptr %10, align 8, !tbaa !15
  %74 = getelementptr inbounds nuw %struct.dt_dev_pixelpipe_cache_t, ptr %73, i32 0, i32 7
  %75 = load ptr, ptr %74, align 8, !tbaa !31
  %76 = load i32, ptr %7, align 4, !tbaa !11
  %77 = sext i32 %76 to i64
  %78 = mul i64 %77, 4
  %79 = getelementptr inbounds nuw i8, ptr %75, i64 %78
  %80 = load ptr, ptr %10, align 8, !tbaa !15
  %81 = getelementptr inbounds nuw %struct.dt_dev_pixelpipe_cache_t, ptr %80, i32 0, i32 8
  store ptr %79, ptr %81, align 8, !tbaa !32
  call void @llvm.lifetime.start.p0(i64 4, ptr %12) #17
  store i32 0, ptr %12, align 4, !tbaa !11
  br label %82

82:                                               ; preds = %102, %4
  %83 = load i32, ptr %12, align 4, !tbaa !11
  %84 = load i32, ptr %7, align 4, !tbaa !11
  %85 = icmp slt i32 %83, %84
  br i1 %85, label %87, label %86

86:                                               ; preds = %82
  call void @llvm.lifetime.end.p0(i64 4, ptr %12) #17
  br label %105

87:                                               ; preds = %82
  %88 = load ptr, ptr %10, align 8, !tbaa !15
  %89 = getelementptr inbounds nuw %struct.dt_dev_pixelpipe_cache_t, ptr %88, i32 0, i32 6
  %90 = load ptr, ptr %89, align 8, !tbaa !30
  %91 = load i32, ptr %12, align 4, !tbaa !11
  %92 = sext i32 %91 to i64
  %93 = getelementptr inbounds i64, ptr %90, i64 %92
  store i64 0, ptr %93, align 8, !tbaa !13
  %94 = load i32, ptr %12, align 4, !tbaa !11
  %95 = add nsw i32 64, %94
  %96 = load ptr, ptr %10, align 8, !tbaa !15
  %97 = getelementptr inbounds nuw %struct.dt_dev_pixelpipe_cache_t, ptr %96, i32 0, i32 7
  %98 = load ptr, ptr %97, align 8, !tbaa !31
  %99 = load i32, ptr %12, align 4, !tbaa !11
  %100 = sext i32 %99 to i64
  %101 = getelementptr inbounds i32, ptr %98, i64 %100
  store i32 %95, ptr %101, align 4, !tbaa !11
  br label %102

102:                                              ; preds = %87
  %103 = load i32, ptr %12, align 4, !tbaa !11
  %104 = add nsw i32 %103, 1
  store i32 %104, ptr %12, align 4, !tbaa !11
  br label %82

105:                                              ; preds = %86
  %106 = load i64, ptr %8, align 8, !tbaa !13
  %107 = icmp ne i64 %106, 0
  br i1 %107, label %109, label %108

108:                                              ; preds = %105
  store i32 1, ptr %5, align 4
  store i32 1, ptr %13, align 4
  br label %186

109:                                              ; preds = %105
  call void @llvm.lifetime.start.p0(i64 4, ptr %14) #17
  store i32 0, ptr %14, align 4, !tbaa !11
  br label %110

110:                                              ; preds = %146, %109
  %111 = load i32, ptr %14, align 4, !tbaa !11
  %112 = load i32, ptr %7, align 4, !tbaa !11
  %113 = icmp slt i32 %111, %112
  br i1 %113, label %115, label %114

114:                                              ; preds = %110
  store i32 5, ptr %13, align 4
  br label %149

115:                                              ; preds = %110
  %116 = load i64, ptr %8, align 8, !tbaa !13
  %117 = load ptr, ptr %10, align 8, !tbaa !15
  %118 = getelementptr inbounds nuw %struct.dt_dev_pixelpipe_cache_t, ptr %117, i32 0, i32 4
  %119 = load ptr, ptr %118, align 8, !tbaa !28
  %120 = load i32, ptr %14, align 4, !tbaa !11
  %121 = sext i32 %120 to i64
  %122 = getelementptr inbounds i64, ptr %119, i64 %121
  store i64 %116, ptr %122, align 8, !tbaa !13
  %123 = load i64, ptr %8, align 8, !tbaa !13
  %124 = call ptr @dt_alloc_aligned(i64 noundef %123)
  %125 = load ptr, ptr %10, align 8, !tbaa !15
  %126 = getelementptr inbounds nuw %struct.dt_dev_pixelpipe_cache_t, ptr %125, i32 0, i32 3
  %127 = load ptr, ptr %126, align 8, !tbaa !27
  %128 = load i32, ptr %14, align 4, !tbaa !11
  %129 = sext i32 %128 to i64
  %130 = getelementptr inbounds ptr, ptr %127, i64 %129
  store ptr %124, ptr %130, align 8, !tbaa !33
  %131 = load ptr, ptr %10, align 8, !tbaa !15
  %132 = getelementptr inbounds nuw %struct.dt_dev_pixelpipe_cache_t, ptr %131, i32 0, i32 3
  %133 = load ptr, ptr %132, align 8, !tbaa !27
  %134 = load i32, ptr %14, align 4, !tbaa !11
  %135 = sext i32 %134 to i64
  %136 = getelementptr inbounds ptr, ptr %133, i64 %135
  %137 = load ptr, ptr %136, align 8, !tbaa !33
  %138 = icmp ne ptr %137, null
  br i1 %138, label %140, label %139

139:                                              ; preds = %115
  store i32 8, ptr %13, align 4
  br label %149

140:                                              ; preds = %115
  %141 = load i64, ptr %8, align 8, !tbaa !13
  %142 = load ptr, ptr %10, align 8, !tbaa !15
  %143 = getelementptr inbounds nuw %struct.dt_dev_pixelpipe_cache_t, ptr %142, i32 0, i32 1
  %144 = load i64, ptr %143, align 8, !tbaa !25
  %145 = add i64 %144, %141
  store i64 %145, ptr %143, align 8, !tbaa !25
  br label %146

146:                                              ; preds = %140
  %147 = load i32, ptr %14, align 4, !tbaa !11
  %148 = add nsw i32 %147, 1
  store i32 %148, ptr %14, align 4, !tbaa !11
  br label %110

149:                                              ; preds = %139, %114
  call void @llvm.lifetime.end.p0(i64 4, ptr %14) #17
  %150 = load i32, ptr %13, align 4
  switch i32 %150, label %186 [
    i32 5, label %151
    i32 8, label %152
  ]

151:                                              ; preds = %149
  store i32 1, ptr %5, align 4
  store i32 1, ptr %13, align 4
  br label %186

152:                                              ; preds = %149
  call void @llvm.lifetime.start.p0(i64 4, ptr %15) #17
  store i32 0, ptr %15, align 4, !tbaa !11
  br label %153

153:                                              ; preds = %180, %152
  %154 = load i32, ptr %15, align 4, !tbaa !11
  %155 = load ptr, ptr %10, align 8, !tbaa !15
  %156 = getelementptr inbounds nuw %struct.dt_dev_pixelpipe_cache_t, ptr %155, i32 0, i32 0
  %157 = load i32, ptr %156, align 8, !tbaa !17
  %158 = icmp slt i32 %154, %157
  br i1 %158, label %160, label %159

159:                                              ; preds = %153
  store i32 9, ptr %13, align 4
  call void @llvm.lifetime.end.p0(i64 4, ptr %15) #17
  br label %183

160:                                              ; preds = %153
  %161 = load ptr, ptr %10, align 8, !tbaa !15
  %162 = getelementptr inbounds nuw %struct.dt_dev_pixelpipe_cache_t, ptr %161, i32 0, i32 3
  %163 = load ptr, ptr %162, align 8, !tbaa !27
  %164 = load i32, ptr %15, align 4, !tbaa !11
  %165 = sext i32 %164 to i64
  %166 = getelementptr inbounds ptr, ptr %163, i64 %165
  %167 = load ptr, ptr %166, align 8, !tbaa !33
  call void @free(ptr noundef %167) #17
  %168 = load ptr, ptr %10, align 8, !tbaa !15
  %169 = getelementptr inbounds nuw %struct.dt_dev_pixelpipe_cache_t, ptr %168, i32 0, i32 4
  %170 = load ptr, ptr %169, align 8, !tbaa !28
  %171 = load i32, ptr %15, align 4, !tbaa !11
  %172 = sext i32 %171 to i64
  %173 = getelementptr inbounds i64, ptr %170, i64 %172
  store i64 0, ptr %173, align 8, !tbaa !13
  %174 = load ptr, ptr %10, align 8, !tbaa !15
  %175 = getelementptr inbounds nuw %struct.dt_dev_pixelpipe_cache_t, ptr %174, i32 0, i32 3
  %176 = load ptr, ptr %175, align 8, !tbaa !27
  %177 = load i32, ptr %15, align 4, !tbaa !11
  %178 = sext i32 %177 to i64
  %179 = getelementptr inbounds ptr, ptr %176, i64 %178
  store ptr null, ptr %179, align 8, !tbaa !33
  br label %180

180:                                              ; preds = %160
  %181 = load i32, ptr %15, align 4, !tbaa !11
  %182 = add nsw i32 %181, 1
  store i32 %182, ptr %15, align 4, !tbaa !11
  br label %153

183:                                              ; preds = %159
  %184 = load ptr, ptr %10, align 8, !tbaa !15
  %185 = getelementptr inbounds nuw %struct.dt_dev_pixelpipe_cache_t, ptr %184, i32 0, i32 1
  store i64 0, ptr %185, align 8, !tbaa !25
  store i32 0, ptr %5, align 4
  store i32 1, ptr %13, align 4
  br label %186

186:                                              ; preds = %183, %151, %149, %108
  call void @llvm.lifetime.end.p0(i64 8, ptr %11) #17
  call void @llvm.lifetime.end.p0(i64 8, ptr %10) #17
  %187 = load i32, ptr %5, align 4
  ret i32 %187
}