; Function Attrs: nounwind uwtable
define range(i32 0, 2) i32 @dt_dev_pixelpipe_cache_init(ptr noundef captures(none) initializes((0, 4), (8, 80), (88, 104)) %0, i32 noundef %1, i64 noundef %2, i64 noundef %3) local_unnamed_addr #0 {
  store i32 %1, ptr %0, align 8, !tbaa !6
  %5 = getelementptr inbounds nuw i8, ptr %0, i64 88
  %6 = getelementptr inbounds nuw i8, ptr %0, i64 72
  store i64 0, ptr %6, align 8, !tbaa !16
  %7 = getelementptr inbounds nuw i8, ptr %0, i64 8
  store i64 0, ptr %7, align 8, !tbaa !17
  %8 = getelementptr inbounds nuw i8, ptr %0, i64 16
  tail call void @llvm.memset.p0.i64(ptr noundef nonnull align 8 dereferenceable(16) %5, i8 0, i64 16, i1 false)
  store i64 %3, ptr %8, align 8, !tbaa !18
  %9 = sext i32 %1 to i64
  %10 = tail call noalias ptr @calloc(i64 noundef %9, i64 noundef 160) #26
  %11 = getelementptr inbounds nuw i8, ptr %0, i64 24
  store ptr %10, ptr %11, align 8, !tbaa !19
  %12 = shl nsw i64 %9, 3
  %13 = getelementptr inbounds nuw i8, ptr %10, i64 %12
  %14 = getelementptr inbounds nuw i8, ptr %0, i64 32
  store ptr %13, ptr %14, align 8, !tbaa !20
  %15 = getelementptr inbounds nuw i8, ptr %13, i64 %12
  %16 = getelementptr inbounds nuw i8, ptr %0, i64 40
  store ptr %15, ptr %16, align 8, !tbaa !21
  %17 = shl nsw i64 %9, 7
  %18 = getelementptr inbounds nuw i8, ptr %15, i64 %17
  %19 = getelementptr inbounds nuw i8, ptr %0, i64 48
  store ptr %18, ptr %19, align 8, !tbaa !22
  %20 = getelementptr inbounds nuw i8, ptr %18, i64 %12
  %21 = getelementptr inbounds nuw i8, ptr %0, i64 56
  store ptr %20, ptr %21, align 8, !tbaa !23
  %22 = shl nsw i64 %9, 2
  %23 = getelementptr inbounds nuw i8, ptr %20, i64 %22
  %24 = getelementptr inbounds nuw i8, ptr %0, i64 64
  store ptr %23, ptr %24, align 8, !tbaa !24
  %25 = icmp sgt i32 %1, 0
  br i1 %25, label %.lr.ph.preheader, label %.thread

.lr.ph.preheader:                                 ; preds = %4
  %wide.trip.count = zext nneg i32 %1 to i64
  br label %.lr.ph

._crit_edge:                                      ; preds = %.lr.ph
  %.not.not = icmp eq i64 %2, 0
  br i1 %.not.not, label %.thread, label %.lr.ph71.preheader

.lr.ph71.preheader:                               ; preds = %._crit_edge
  %wide.trip.count79 = zext nneg i32 %1 to i64
  br label %.lr.ph71

.lr.ph:                                           ; preds = %.lr.ph.preheader, %.lr.ph
  %indvars.iv = phi i64 [ 0, %.lr.ph.preheader ], [ %indvars.iv.next, %.lr.ph ]
  %26 = getelementptr inbounds nuw i64, ptr %18, i64 %indvars.iv
  store i64 0, ptr %26, align 8, !tbaa !25
  %27 = getelementptr inbounds nuw i32, ptr %20, i64 %indvars.iv
  %28 = trunc i64 %indvars.iv to i32
  %29 = add i32 %28, 64
  store i32 %29, ptr %27, align 4, !tbaa !26
  %indvars.iv.next = add nuw nsw i64 %indvars.iv, 1
  %exitcond.not = icmp eq i64 %indvars.iv.next, %wide.trip.count
  br i1 %exitcond.not, label %._crit_edge, label %.lr.ph

.lr.ph71:                                         ; preds = %.lr.ph71.preheader, %40
  %indvars.iv76 = phi i64 [ 0, %.lr.ph71.preheader ], [ %indvars.iv.next77, %40 ]
  %30 = load ptr, ptr %14, align 8, !tbaa !20
  %31 = getelementptr inbounds nuw i64, ptr %30, i64 %indvars.iv76
  store i64 %2, ptr %31, align 8, !tbaa !25
  %32 = tail call ptr @dt_alloc_aligned(i64 noundef %2) #27
  %33 = load ptr, ptr %11, align 8, !tbaa !19
  %34 = getelementptr inbounds nuw ptr, ptr %33, i64 %indvars.iv76
  store ptr %32, ptr %34, align 8, !tbaa !27
  %35 = load ptr, ptr %11, align 8, !tbaa !19
  %36 = getelementptr inbounds nuw ptr, ptr %35, i64 %indvars.iv76
  %37 = load ptr, ptr %36, align 8, !tbaa !27
  %.not65 = icmp eq ptr %37, null
  br i1 %.not65, label %.preheader, label %40

.preheader:                                       ; preds = %.lr.ph71
  %38 = load i32, ptr %0, align 8, !tbaa !6
  %39 = icmp sgt i32 %38, 0
  br i1 %39, label %.lr.ph73, label %._crit_edge74

40:                                               ; preds = %.lr.ph71
  %41 = load i64, ptr %7, align 8, !tbaa !17
  %42 = add i64 %41, %2
  store i64 %42, ptr %7, align 8, !tbaa !17
  %indvars.iv.next77 = add nuw nsw i64 %indvars.iv76, 1
  %exitcond80.not = icmp eq i64 %indvars.iv.next77, %wide.trip.count79
  br i1 %exitcond80.not, label %.thread, label %.lr.ph71

._crit_edge74:                                    ; preds = %.lr.ph73, %.preheader
  store i64 0, ptr %7, align 8, !tbaa !17
  br label %.thread

.lr.ph73:                                         ; preds = %.preheader, %.lr.ph73
  %indvars.iv81 = phi i64 [ %indvars.iv.next82, %.lr.ph73 ], [ 0, %.preheader ]
  %43 = load ptr, ptr %11, align 8, !tbaa !19
  %44 = getelementptr inbounds nuw ptr, ptr %43, i64 %indvars.iv81
  %45 = load ptr, ptr %44, align 8, !tbaa !27
  tail call void @free(ptr noundef %45) #27
  %46 = load ptr, ptr %14, align 8, !tbaa !20
  %47 = getelementptr inbounds nuw i64, ptr %46, i64 %indvars.iv81
  store i64 0, ptr %47, align 8, !tbaa !25
  %48 = load ptr, ptr %11, align 8, !tbaa !19
  %49 = getelementptr inbounds nuw ptr, ptr %48, i64 %indvars.iv81
  store ptr null, ptr %49, align 8, !tbaa !27
  %indvars.iv.next82 = add nuw nsw i64 %indvars.iv81, 1
  %50 = load i32, ptr %0, align 8, !tbaa !6
  %51 = sext i32 %50 to i64
  %52 = icmp slt i64 %indvars.iv.next82, %51
  br i1 %52, label %.lr.ph73, label %._crit_edge74

.thread:                                          ; preds = %40, %4, %._crit_edge, %._crit_edge74
  %.062 = phi i32 [ 0, %._crit_edge74 ], [ 1, %._crit_edge ], [ 1, %4 ], [ 1, %40 ]
  ret i32 %.062
}